target datalayout = "e-m:e-p270:32:32-p271:32:32-p272:64:64-i64:64-i128:128-f80:128-n8:16:32:64-S128"
target triple = "x86_64-unknown-linux-gnu"

%"class.QuantLib::HestonExpansion" = type { ptr }
%"class.QuantLib::FordeHestonExpansion" = type { %"class.QuantLib::HestonExpansion", [5 x double] }

@_ZTVN8QuantLib15HestonExpansionE = linkonce_odr unnamed_addr constant { [5 x ptr] } { [5 x ptr] [ptr null, ptr @_ZTIN8QuantLib15HestonExpansionE, ptr @_ZN8QuantLib15HestonExpansionD2Ev, ptr @_ZN8QuantLib15HestonExpansionD0Ev, ptr @__cxa_pure_virtual] }, comdat, align 8

; Function Attrs: inlinehint mustprogress nounwind uwtable
define linkonce_odr void @_ZN8QuantLib15HestonExpansionC2Ev(ptr noundef nonnull align 8 dereferenceable(8) %this) unnamed_addr #5 comdat align 2 {
entry:
  %this.addr = alloca ptr, align 8
  store ptr %this, ptr %this.addr, align 8, !tbaa !3
  %this1 = load ptr, ptr %this.addr, align 8
  store ptr getelementptr inbounds inrange(-16, 24) ({ [5 x ptr] }, ptr @_ZTVN8QuantLib15HestonExpansionE, i32 0, i32 0, i32 2), ptr %this1, align 8, !tbaa !12
  ret void
}

; Function Attrs: mustprogress nounwind uwtable
define void @_ZN8QuantLib20FordeHestonExpansionC2Edddddd(ptr noundef nonnull align 8 dereferenceable(48) %this, double noundef %kappa, double noundef %theta, double noundef %sigma, double noundef %v0, double noundef %rho, double noundef %term) unnamed_addr #1 align 2 {
entry:
  %this.addr = alloca ptr, align 8
  %kappa.addr = alloca double, align 8
  %theta.addr = alloca double, align 8
  %sigma.addr = alloca double, align 8
  %v0.addr = alloca double, align 8
  %rho.addr = alloca double, align 8
  %term.addr = alloca double, align 8
  %v0Sqrt = alloca double, align 8
  %rhoBarSquare = alloca double, align 8
  %sigma00 = alloca double, align 8
  %sigma01 = alloca double, align 8
  %sigma02 = alloca double, align 8
  %a00 = alloca double, align 8
  %a01 = alloca double, align 8
  %a02 = alloca double, align 8
  store ptr %this, ptr %this.addr, align 8, !tbaa !3
  store double %kappa, ptr %kappa.addr, align 8, !tbaa !53
  store double %theta, ptr %theta.addr, align 8, !tbaa !53
  store double %sigma, ptr %sigma.addr, align 8, !tbaa !53
  store double %v0, ptr %v0.addr, align 8, !tbaa !53
  store double %rho, ptr %rho.addr, align 8, !tbaa !53
  store double %term, ptr %term.addr, align 8, !tbaa !53
  %this1 = load ptr, ptr %this.addr, align 8
  call void @_ZN8QuantLib15HestonExpansionC2Ev(ptr noundef nonnull align 8 dereferenceable(8) %this1) #13
  store ptr getelementptr inbounds inrange(-16, 24) ({ [5 x ptr] }, ptr @_ZTVN8QuantLib20FordeHestonExpansionE, i32 0, i32 0, i32 2), ptr %this1, align 8, !tbaa !12
  call void @llvm.lifetime.start.p0(i64 8, ptr %v0Sqrt) #13
  %0 = load double, ptr %v0.addr, align 8, !tbaa !53
  %call = call double @sqrt(double noundef %0) #13, !tbaa !54
  store double %call, ptr %v0Sqrt, align 8, !tbaa !53
  call void @llvm.lifetime.start.p0(i64 8, ptr %rhoBarSquare) #13
  %1 = load double, ptr %rho.addr, align 8, !tbaa !53
  %2 = load double, ptr %rho.addr, align 8, !tbaa !53
  %neg = fneg double %1
  %3 = call double @llvm.fmuladd.f64(double %neg, double %2, double 1.000000e+00)
  store double %3, ptr %rhoBarSquare, align 8, !tbaa !53
  call void @llvm.lifetime.start.p0(i64 8, ptr %sigma00) #13
  %4 = load double, ptr %v0Sqrt, align 8, !tbaa !53
  store double %4, ptr %sigma00, align 8, !tbaa !53
  call void @llvm.lifetime.start.p0(i64 8, ptr %sigma01) #13
  %5 = load double, ptr %v0Sqrt, align 8, !tbaa !53
  %6 = load double, ptr %rho.addr, align 8, !tbaa !53
  %7 = load double, ptr %sigma.addr, align 8, !tbaa !53
  %mul = fmul double %6, %7
  %8 = load double, ptr %v0.addr, align 8, !tbaa !53
  %mul2 = fmul double 4.000000e+00, %8
  %div = fdiv double %mul, %mul2
  %mul3 = fmul double %5, %div
  store double %mul3, ptr %sigma01, align 8, !tbaa !53
  call void @llvm.lifetime.start.p0(i64 8, ptr %sigma02) #13
  %9 = load double, ptr %v0Sqrt, align 8, !tbaa !53
  %10 = load double, ptr %rho.addr, align 8, !tbaa !53
  %mul4 = fmul double 5.000000e+00, %10
  %11 = load double, ptr %rho.addr, align 8, !tbaa !53
  %mul5 = fmul double %mul4, %11
  %div6 = fdiv double %mul5, 2.000000e+00
  %sub = fsub double 1.000000e+00, %div6
  %div7 = fdiv double %sub, 2.400000e+01
  %12 = load double, ptr %sigma.addr, align 8, !tbaa !53
  %mul8 = fmul double %div7, %12
  %13 = load double, ptr %sigma.addr, align 8, !tbaa !53
  %mul9 = fmul double %mul8, %13
  %14 = load double, ptr %v0.addr, align 8, !tbaa !53
  %15 = load double, ptr %v0.addr, align 8, !tbaa !53
  %mul10 = fmul double %14, %15
  %div11 = fdiv double %mul9, %mul10
  %mul12 = fmul double %9, %div11
  store double %mul12, ptr %sigma02, align 8, !tbaa !53
  call void @llvm.lifetime.start.p0(i64 8, ptr %a00) #13
  %16 = load double, ptr %sigma.addr, align 8, !tbaa !53
  %fneg = fneg double %16
  %17 = load double, ptr %sigma.addr, align 8, !tbaa !53
  %mul13 = fmul double %fneg, %17
  %div14 = fdiv double %mul13, 1.200000e+01
  %18 = load double, ptr %rho.addr, align 8, !tbaa !53
  %19 = load double, ptr %rho.addr, align 8, !tbaa !53
  %mul15 = fmul double %18, %19
  %div16 = fdiv double %mul15, 4.000000e+00
  %sub17 = fsub double 1.000000e+00, %div16
  %20 = load double, ptr %v0.addr, align 8, !tbaa !53
  %21 = load double, ptr %rho.addr, align 8, !tbaa !53
  %mul19 = fmul double %20, %21
  %22 = load double, ptr %sigma.addr, align 8, !tbaa !53
  %mul20 = fmul double %mul19, %22
  %div21 = fdiv double %mul20, 4.000000e+00
  %23 = call double @llvm.fmuladd.f64(double %div14, double %sub17, double %div21)
  %24 = load double, ptr %kappa.addr, align 8, !tbaa !53
  %div22 = fdiv double %24, 2.000000e+00
  %25 = load double, ptr %theta.addr, align 8, !tbaa !53
  %26 = load double, ptr %v0.addr, align 8, !tbaa !53
  %sub23 = fsub double %25, %26
  %27 = call double @llvm.fmuladd.f64(double %div22, double %sub23, double %23)
  store double %27, ptr %a00, align 8, !tbaa !53
  call void @llvm.lifetime.start.p0(i64 8, ptr %a01) #13
  %28 = load double, ptr %rho.addr, align 8, !tbaa !53
  %29 = load double, ptr %sigma.addr, align 8, !tbaa !53
  %mul25 = fmul double %28, %29
  %30 = load double, ptr %v0.addr, align 8, !tbaa !53
  %mul26 = fmul double 2.400000e+01, %30
  %div27 = fdiv double %mul25, %mul26
  %31 = load double, ptr %sigma.addr, align 8, !tbaa !53
  %32 = load double, ptr %sigma.addr, align 8, !tbaa !53
  %mul28 = fmul double %31, %32
  %33 = load double, ptr %rhoBarSquare, align 8, !tbaa !53
  %34 = load double, ptr %kappa.addr, align 8, !tbaa !53
  %mul30 = fmul double 2.000000e+00, %34
  %35 = load double, ptr %theta.addr, align 8, !tbaa !53
  %36 = load double, ptr %v0.addr, align 8, !tbaa !53
  %add = fadd double %35, %36
  %mul31 = fmul double %mul30, %add
  %neg32 = fneg double %mul31
  %37 = call double @llvm.fmuladd.f64(double %mul28, double %33, double %neg32)
  %38 = load double, ptr %v0.addr, align 8, !tbaa !53
  %39 = load double, ptr %rho.addr, align 8, !tbaa !53
  %mul33 = fmul double %38, %39
  %40 = load double, ptr %sigma.addr, align 8, !tbaa !53
  %41 = call double @llvm.fmuladd.f64(double %mul33, double %40, double %37)
  %mul35 = fmul double %div27, %41
  store double %mul35, ptr %a01, align 8, !tbaa !53
  call void @llvm.lifetime.start.p0(i64 8, ptr %a02) #13
  %42 = load double, ptr %sigma.addr, align 8, !tbaa !53
  %mul36 = fmul double 1.760000e+02, %42
  %43 = load double, ptr %sigma.addr, align 8, !tbaa !53
  %44 = load double, ptr %kappa.addr, align 8, !tbaa !53
  %mul38 = fmul double 4.800000e+02, %44
  %45 = load double, ptr %theta.addr, align 8, !tbaa !53
  %mul39 = fmul double %mul38, %45
  %neg40 = fneg double %mul39
  %46 = call double @llvm.fmuladd.f64(double %mul36, double %43, double %neg40)
  %47 = load double, ptr %rho.addr, align 8, !tbaa !53
  %mul41 = fmul double 7.120000e+02, %47
  %48 = load double, ptr %rho.addr, align 8, !tbaa !53
  %mul42 = fmul double %mul41, %48
  %49 = load double, ptr %sigma.addr, align 8, !tbaa !53
  %mul43 = fmul double %mul42, %49
  %50 = load double, ptr %sigma.addr, align 8, !tbaa !53
  %neg45 = fneg double %mul43
  %51 = call double @llvm.fmuladd.f64(double %neg45, double %50, double %46)
  %52 = load double, ptr %rho.addr, align 8, !tbaa !53
  %mul46 = fmul double 5.210000e+02, %52
  %53 = load double, ptr %rho.addr, align 8, !tbaa !53
  %mul47 = fmul double %mul46, %53
  %54 = load double, ptr %rho.addr, align 8, !tbaa !53
  %mul48 = fmul double %mul47, %54
  %55 = load double, ptr %rho.addr, align 8, !tbaa !53
  %mul49 = fmul double %mul48, %55
  %56 = load double, ptr %sigma.addr, align 8, !tbaa !53
  %mul50 = fmul double %mul49, %56
  %57 = load double, ptr %sigma.addr, align 8, !tbaa !53
  %58 = call double @llvm.fmuladd.f64(double %mul50, double %57, double %51)
  %59 = load double, ptr %sigma.addr, align 8, !tbaa !53
  %mul52 = fmul double 4.000000e+01, %59
  %60 = load double, ptr %rho.addr, align 8, !tbaa !53
  %mul53 = fmul double %mul52, %60
  %61 = load double, ptr %rho.addr, align 8, !tbaa !53
  %mul54 = fmul double %mul53, %61
  %62 = load double, ptr %rho.addr, align 8, !tbaa !53
  %mul55 = fmul double %mul54, %62
  %63 = load double, ptr %v0.addr, align 8, !tbaa !53
  %64 = call double @llvm.fmuladd.f64(double %mul55, double %63, double %58)
  %65 = load double, ptr %kappa.addr, align 8, !tbaa !53
  %mul57 = fmul double 1.040000e+03, %65
  %66 = load double, ptr %theta.addr, align 8, !tbaa !53
  %mul58 = fmul double %mul57, %66
  %67 = load double, ptr %rho.addr, align 8, !tbaa !53
  %mul59 = fmul double %mul58, %67
  %68 = load double, ptr %rho.addr, align 8, !tbaa !53
  %69 = call double @llvm.fmuladd.f64(double %mul59, double %68, double %64)
  %70 = load double, ptr %v0.addr, align 8, !tbaa !53
  %mul61 = fmul double 8.000000e+01, %70
  %71 = load double, ptr %kappa.addr, align 8, !tbaa !53
  %mul62 = fmul double %mul61, %71
  %72 = load double, ptr %rho.addr, align 8, !tbaa !53
  %mul63 = fmul double %mul62, %72
  %73 = load double, ptr %rho.addr, align 8, !tbaa !53
  %neg65 = fneg double %mul63
  %74 = call double @llvm.fmuladd.f64(double %neg65, double %73, double %69)
  %75 = load double, ptr %sigma.addr, align 8, !tbaa !53
  %mul66 = fmul double %74, %75
  %76 = load double, ptr %sigma.addr, align 8, !tbaa !53
  %mul67 = fmul double %mul66, %76
  %77 = load double, ptr %v0.addr, align 8, !tbaa !53
  %78 = load double, ptr %v0.addr, align 8, !tbaa !53
  %mul68 = fmul double %77, %78
  %mul69 = fmul double %mul68, 7.680000e+03
  %div70 = fdiv double %mul67, %mul69
  store double %div70, ptr %a02, align 8, !tbaa !53
  %79 = load double, ptr %sigma00, align 8, !tbaa !53
  %80 = load double, ptr %sigma00, align 8, !tbaa !53
  %81 = load double, ptr %a00, align 8, !tbaa !53
  %82 = load double, ptr %term.addr, align 8, !tbaa !53
  %mul72 = fmul double %81, %82
  %83 = call double @llvm.fmuladd.f64(double %79, double %80, double %mul72)
  %coeffs = getelementptr inbounds nuw %"class.QuantLib::FordeHestonExpansion", ptr %this1, i32 0, i32 1
  %arrayidx = getelementptr inbounds [5 x double], ptr %coeffs, i64 0, i64 0
  store double %83, ptr %arrayidx, align 8, !tbaa !53
  %84 = load double, ptr %sigma00, align 8, !tbaa !53
  %85 = load double, ptr %sigma01, align 8, !tbaa !53
  %mul73 = fmul double %84, %85
  %86 = load double, ptr %a01, align 8, !tbaa !53
  %87 = load double, ptr %term.addr, align 8, !tbaa !53
  %mul75 = fmul double %86, %87
  %88 = call double @llvm.fmuladd.f64(double %mul73, double 2.000000e+00, double %mul75)
  %coeffs76 = getelementptr inbounds nuw %"class.QuantLib::FordeHestonExpansion", ptr %this1, i32 0, i32 1
  %arrayidx77 = getelementptr inbounds [5 x double], ptr %coeffs76, i64 0, i64 1
  store double %88, ptr %arrayidx77, align 8, !tbaa !53
  %89 = load double, ptr %sigma00, align 8, !tbaa !53
  %90 = load double, ptr %sigma02, align 8, !tbaa !53
  %mul78 = fmul double %89, %90
  %91 = load double, ptr %sigma01, align 8, !tbaa !53
  %92 = load double, ptr %sigma01, align 8, !tbaa !53
  %mul80 = fmul double %91, %92
  %93 = call double @llvm.fmuladd.f64(double %mul78, double 2.000000e+00, double %mul80)
  %94 = load double, ptr %a02, align 8, !tbaa !53
  %95 = load double, ptr %term.addr, align 8, !tbaa !53
  %96 = call double @llvm.fmuladd.f64(double %94, double %95, double %93)
  %coeffs82 = getelementptr inbounds nuw %"class.QuantLib::FordeHestonExpansion", ptr %this1, i32 0, i32 1
  %arrayidx83 = getelementptr inbounds [5 x double], ptr %coeffs82, i64 0, i64 2
  store double %96, ptr %arrayidx83, align 8, !tbaa !53
  %97 = load double, ptr %sigma01, align 8, !tbaa !53
  %98 = load double, ptr %sigma02, align 8, !tbaa !53
  %mul84 = fmul double %97, %98
  %mul85 = fmul double %mul84, 2.000000e+00
  %coeffs86 = getelementptr inbounds nuw %"class.QuantLib::FordeHestonExpansion", ptr %this1, i32 0, i32 1
  %arrayidx87 = getelementptr inbounds [5 x double], ptr %coeffs86, i64 0, i64 3
  store double %mul85, ptr %arrayidx87, align 8, !tbaa !53
  %99 = load double, ptr %sigma02, align 8, !tbaa !53
  %100 = load double, ptr %sigma02, align 8, !tbaa !53
  %mul88 = fmul double %99, %100
  %coeffs89 = getelementptr inbounds nuw %"class.QuantLib::FordeHestonExpansion", ptr %this1, i32 0, i32 1
  %arrayidx90 = getelementptr inbounds [5 x double], ptr %coeffs89, i64 0, i64 4
  store double %mul88, ptr %arrayidx90, align 8, !tbaa !53
  call void @llvm.lifetime.end.p0(i64 8, ptr %a02) #13
  call void @llvm.lifetime.end.p0(i64 8, ptr %a01) #13
  call void @llvm.lifetime.end.p0(i64 8, ptr %a00) #13
  call void @llvm.lifetime.end.p0(i64 8, ptr %sigma02) #13
  call void @llvm.lifetime.end.p0(i64 8, ptr %sigma01) #13
  call void @llvm.lifetime.end.p0(i64 8, ptr %sigma00) #13
  call void @llvm.lifetime.end.p0(i64 8, ptr %rhoBarSquare) #13
  call void @llvm.lifetime.end.p0(i64 8, ptr %v0Sqrt) #13
  ret void
}