; Function Attrs: mustprogress nofree nounwind willreturn memory(write) uwtable
define void @_ZN8QuantLib20FordeHestonExpansionC2Edddddd(ptr nocapture noundef nonnull writeonly align 8 dereferenceable(48) %this, double noundef %kappa, double noundef %theta, double noundef %sigma, double noundef %v0, double noundef %rho, double noundef %term) unnamed_addr #14 align 2 {
entry:
  store ptr getelementptr inbounds inrange(-16, 24) (i8, ptr @_ZTVN8QuantLib20FordeHestonExpansionE, i64 16), ptr %this, align 8, !tbaa !35
  %call = tail call double @sqrt(double noundef %v0) #29, !tbaa !112
  %neg = fneg double %rho
  %0 = tail call double @llvm.fmuladd.f64(double %neg, double %rho, double 1.000000e+00)
  %mul = fmul double %sigma, %rho
  %mul2 = fmul double %v0, 4.000000e+00
  %div = fdiv double %mul, %mul2
  %mul3 = fmul double %div, %call
  %mul4 = fmul double %rho, 5.000000e+00
  %mul5 = fmul double %rho, %mul4
  %div6 = fmul double %mul5, 5.000000e-01
  %sub = fsub double 1.000000e+00, %div6
  %div7 = fdiv double %sub, 2.400000e+01
  %mul8 = fmul double %sigma, %div7
  %mul9 = fmul double %sigma, %mul8
  %mul10 = fmul double %v0, %v0
  %div11 = fdiv double %mul9, %mul10
  %mul12 = fmul double %div11, %call
  %fneg = fneg double %sigma
  %mul13 = fmul double %sigma, %fneg
  %div14 = fdiv double %mul13, 1.200000e+01
  %mul15 = fmul double %rho, %rho
  %div16 = fmul double %mul15, 2.500000e-01
  %sub17 = fsub double 1.000000e+00, %div16
  %mul19 = fmul double %v0, %rho
  %mul20 = fmul double %sigma, %mul19
  %div21 = fmul double %mul20, 2.500000e-01
  %1 = tail call double @llvm.fmuladd.f64(double %div14, double %sub17, double %div21)
  %div22 = fmul double %kappa, 5.000000e-01
  %sub23 = fsub double %theta, %v0
  %2 = tail call double @llvm.fmuladd.f64(double %div22, double %sub23, double %1)
  %mul26 = fmul double %v0, 2.400000e+01
  %div27 = fdiv double %mul, %mul26
  %mul28 = fmul double %sigma, %sigma
  %mul30 = fmul double %kappa, 2.000000e+00
  %add = fadd double %theta, %v0
  %3 = fneg double %add
  %neg32 = fmul double %mul30, %3
  %4 = tail call double @llvm.fmuladd.f64(double %mul28, double %0, double %neg32)
  %5 = tail call double @llvm.fmuladd.f64(double %mul19, double %sigma, double %4)
  %mul35 = fmul double %div27, %5
  %mul36 = fmul double %sigma, 1.760000e+02
  %mul38 = fmul double %kappa, 4.800000e+02
  %6 = fneg double %theta
  %neg40 = fmul double %mul38, %6
  %7 = tail call double @llvm.fmuladd.f64(double %mul36, double %sigma, double %neg40)
  %mul41 = fmul double %rho, 7.120000e+02
  %mul42 = fmul double %rho, %mul41
  %neg45 = fmul double %mul42, %fneg
  %8 = tail call double @llvm.fmuladd.f64(double %neg45, double %sigma, double %7)
  %mul46 = fmul double %rho, 5.210000e+02
  %mul47 = fmul double %rho, %mul46
  %mul48 = fmul double %rho, %mul47
  %mul49 = fmul double %rho, %mul48
  %mul50 = fmul double %sigma, %mul49
  %9 = tail call double @llvm.fmuladd.f64(double %mul50, double %sigma, double %8)
  %mul52 = fmul double %sigma, 4.000000e+01
  %mul53 = fmul double %mul52, %rho
  %mul54 = fmul double %rho, %mul53
  %mul55 = fmul double %rho, %mul54
  %10 = tail call double @llvm.fmuladd.f64(double %mul55, double %v0, double %9)
  %mul57 = fmul double %kappa, 1.040000e+03
  %mul58 = fmul double %mul57, %theta
  %mul59 = fmul double %mul58, %rho
  %11 = tail call double @llvm.fmuladd.f64(double %mul59, double %rho, double %10)
  %mul61 = fmul double %v0, 8.000000e+01
  %mul62 = fmul double %kappa, %mul61
  %neg65 = fmul double %mul62, %neg
  %12 = tail call double @llvm.fmuladd.f64(double %neg65, double %rho, double %11)
  %mul66 = fmul double %sigma, %12
  %mul67 = fmul double %sigma, %mul66
  %mul69 = fmul double %mul10, 7.680000e+03
  %div70 = fdiv double %mul67, %mul69
  %mul72 = fmul double %term, %2
  %13 = tail call double @llvm.fmuladd.f64(double %call, double %call, double %mul72)
  %coeffs = getelementptr inbounds nuw i8, ptr %this, i64 8
  store double %13, ptr %coeffs, align 8, !tbaa !114
  %mul73 = fmul double %call, %mul3
  %mul75 = fmul double %term, %mul35
  %14 = tail call double @llvm.fmuladd.f64(double %mul73, double 2.000000e+00, double %mul75)
  %arrayidx77 = getelementptr inbounds i8, ptr %this, i64 16
  store double %14, ptr %arrayidx77, align 8, !tbaa !114
  %mul78 = fmul double %call, %mul12
  %mul80 = fmul double %mul3, %mul3
  %15 = tail call double @llvm.fmuladd.f64(double %mul78, double 2.000000e+00, double %mul80)
  %16 = tail call double @llvm.fmuladd.f64(double %div70, double %term, double %15)
  %arrayidx83 = getelementptr inbounds i8, ptr %this, i64 24
  store double %16, ptr %arrayidx83, align 8, !tbaa !114
  %mul84 = fmul double %mul3, %mul12
  %mul85 = fmul double %mul84, 2.000000e+00
  %arrayidx87 = getelementptr inbounds i8, ptr %this, i64 32
  store double %mul85, ptr %arrayidx87, align 8, !tbaa !114
  %mul88 = fmul double %mul12, %mul12
  %arrayidx90 = getelementptr inbounds i8, ptr %this, i64 40
  store double %mul88, ptr %arrayidx90, align 8, !tbaa !114
  ret void
}